target datalayout = "e-m:e-p270:32:32-p271:32:32-p272:64:64-i64:64-i128:128-f80:128-n8:16:32:64-S128"
target triple = "x86_64-pc-linux-gnu"

%struct.SDL_vidpid_list = type { ptr, i32, i32, ptr, ptr, i32, i32, ptr, i32, ptr, i8 }

; Function Attrs: nounwind uwtable
define hidden void @SDL_LoadVIDPIDListFromHints(ptr noundef %0, ptr noundef %1, ptr noundef %2) #0 {
  %4 = alloca ptr, align 8
  %5 = alloca ptr, align 8
  %6 = alloca ptr, align 8
  %7 = alloca ptr, align 8
  store ptr %0, ptr %4, align 8
  store ptr %1, ptr %5, align 8
  store ptr %2, ptr %6, align 8
  %8 = load ptr, ptr %4, align 8
  %9 = getelementptr inbounds nuw %struct.SDL_vidpid_list, ptr %8, i32 0, i32 1
  store i32 0, ptr %9, align 8
  %10 = load ptr, ptr %4, align 8
  %11 = getelementptr inbounds nuw %struct.SDL_vidpid_list, ptr %10, i32 0, i32 5
  store i32 0, ptr %11, align 8
  %12 = load ptr, ptr %4, align 8
  %13 = getelementptr inbounds nuw %struct.SDL_vidpid_list, ptr %12, i32 0, i32 8
  %14 = load i32, ptr %13, align 8
  %15 = icmp sgt i32 %14, 0
  br i1 %15, label %16, label %58

16:                                               ; preds = %3
  %17 = load ptr, ptr %4, align 8
  %18 = getelementptr inbounds nuw %struct.SDL_vidpid_list, ptr %17, i32 0, i32 1
  %19 = load i32, ptr %18, align 8
  %20 = load ptr, ptr %4, align 8
  %21 = getelementptr inbounds nuw %struct.SDL_vidpid_list, ptr %20, i32 0, i32 8
  %22 = load i32, ptr %21, align 8
  %23 = icmp slt i32 %19, %22
  br i1 %23, label %24, label %57

24:                                               ; preds = %16
  call void @llvm.lifetime.start.p0(i64 8, ptr %7) #7
  %25 = load ptr, ptr %4, align 8
  %26 = getelementptr inbounds nuw %struct.SDL_vidpid_list, ptr %25, i32 0, i32 8
  %27 = load i32, ptr %26, align 8
  %28 = sext i32 %27 to i64
  %29 = mul i64 %28, 4
  %30 = call noalias ptr @SDL_malloc_REAL(i64 noundef %29)
  store ptr %30, ptr %7, align 8
  %31 = load ptr, ptr %7, align 8
  %32 = icmp ne ptr %31, null
  br i1 %32, label %33, label %56

33:                                               ; preds = %24
  %34 = load ptr, ptr %7, align 8
  %35 = load ptr, ptr %4, align 8
  %36 = getelementptr inbounds nuw %struct.SDL_vidpid_list, ptr %35, i32 0, i32 9
  %37 = load ptr, ptr %36, align 8
  %38 = load ptr, ptr %4, align 8
  %39 = getelementptr inbounds nuw %struct.SDL_vidpid_list, ptr %38, i32 0, i32 8
  %40 = load i32, ptr %39, align 8
  %41 = sext i32 %40 to i64
  %42 = mul i64 %41, 4
  call void @llvm.memcpy.p0.p0.i64(ptr align 4 %34, ptr align 4 %37, i64 %42, i1 false)
  %43 = load ptr, ptr %7, align 8
  %44 = load ptr, ptr %4, align 8
  %45 = getelementptr inbounds nuw %struct.SDL_vidpid_list, ptr %44, i32 0, i32 3
  store ptr %43, ptr %45, align 8
  %46 = load ptr, ptr %4, align 8
  %47 = getelementptr inbounds nuw %struct.SDL_vidpid_list, ptr %46, i32 0, i32 8
  %48 = load i32, ptr %47, align 8
  %49 = load ptr, ptr %4, align 8
  %50 = getelementptr inbounds nuw %struct.SDL_vidpid_list, ptr %49, i32 0, i32 1
  store i32 %48, ptr %50, align 8
  %51 = load ptr, ptr %4, align 8
  %52 = getelementptr inbounds nuw %struct.SDL_vidpid_list, ptr %51, i32 0, i32 8
  %53 = load i32, ptr %52, align 8
  %54 = load ptr, ptr %4, align 8
  %55 = getelementptr inbounds nuw %struct.SDL_vidpid_list, ptr %54, i32 0, i32 2
  store i32 %53, ptr %55, align 4
  br label %56

56:                                               ; preds = %33, %24
  call void @llvm.lifetime.end.p0(i64 8, ptr %7) #7
  br label %57

57:                                               ; preds = %56, %16
  br label %58

58:                                               ; preds = %57, %3
  %59 = load ptr, ptr %5, align 8
  %60 = load ptr, ptr %4, align 8
  %61 = getelementptr inbounds nuw %struct.SDL_vidpid_list, ptr %60, i32 0, i32 1
  %62 = load ptr, ptr %4, align 8
  %63 = getelementptr inbounds nuw %struct.SDL_vidpid_list, ptr %62, i32 0, i32 2
  %64 = load ptr, ptr %4, align 8
  %65 = getelementptr inbounds nuw %struct.SDL_vidpid_list, ptr %64, i32 0, i32 3
  call void @SDL_LoadVIDPIDListFromHint(ptr noundef %59, ptr noundef %61, ptr noundef %63, ptr noundef %65)
  %66 = load ptr, ptr %6, align 8
  %67 = load ptr, ptr %4, align 8
  %68 = getelementptr inbounds nuw %struct.SDL_vidpid_list, ptr %67, i32 0, i32 5
  %69 = load ptr, ptr %4, align 8
  %70 = getelementptr inbounds nuw %struct.SDL_vidpid_list, ptr %69, i32 0, i32 6
  %71 = load ptr, ptr %4, align 8
  %72 = getelementptr inbounds nuw %struct.SDL_vidpid_list, ptr %71, i32 0, i32 7
  call void @SDL_LoadVIDPIDListFromHint(ptr noundef %66, ptr noundef %68, ptr noundef %70, ptr noundef %72)
  ret void
}

; Function Attrs: nounwind uwtable
define internal void @SDL_VIDPIDExcludedHintChanged(ptr noundef %0, ptr noundef %1, ptr noundef %2, ptr noundef %3) #0 {
  %5 = alloca ptr, align 8
  %6 = alloca ptr, align 8
  %7 = alloca ptr, align 8
  %8 = alloca ptr, align 8
  %9 = alloca ptr, align 8
  %10 = alloca ptr, align 8
  %11 = alloca ptr, align 8
  %12 = alloca i32, align 4
  store ptr %0, ptr %5, align 8
  store ptr %1, ptr %6, align 8
  store ptr %2, ptr %7, align 8
  store ptr %3, ptr %8, align 8
  call void @llvm.lifetime.start.p0(i64 8, ptr %9) #7
  %13 = load ptr, ptr %5, align 8
  store ptr %13, ptr %9, align 8
  call void @llvm.lifetime.start.p0(i64 8, ptr %10) #7
  store ptr null, ptr %10, align 8
  call void @llvm.lifetime.start.p0(i64 8, ptr %11) #7
  %14 = load ptr, ptr %8, align 8
  store ptr %14, ptr %11, align 8
  %15 = load ptr, ptr %9, align 8
  %16 = getelementptr inbounds nuw %struct.SDL_vidpid_list, ptr %15, i32 0, i32 10
  %17 = load i8, ptr %16, align 8, !range !3, !noundef !4
  %18 = trunc i8 %17 to i1
  br i1 %18, label %20, label %19

19:                                               ; preds = %4
  store i32 1, ptr %12, align 4
  br label %34

20:                                               ; preds = %4
  %21 = load ptr, ptr %9, align 8
  %22 = getelementptr inbounds nuw %struct.SDL_vidpid_list, ptr %21, i32 0, i32 0
  %23 = load ptr, ptr %22, align 8
  %24 = icmp ne ptr %23, null
  br i1 %24, label %25, label %30

25:                                               ; preds = %20
  %26 = load ptr, ptr %9, align 8
  %27 = getelementptr inbounds nuw %struct.SDL_vidpid_list, ptr %26, i32 0, i32 0
  %28 = load ptr, ptr %27, align 8
  %29 = call ptr @SDL_GetHint_REAL(ptr noundef %28)
  store ptr %29, ptr %10, align 8
  br label %30

30:                                               ; preds = %25, %20
  %31 = load ptr, ptr %9, align 8
  %32 = load ptr, ptr %10, align 8
  %33 = load ptr, ptr %11, align 8
  call void @SDL_LoadVIDPIDListFromHints(ptr noundef %31, ptr noundef %32, ptr noundef %33)
  store i32 0, ptr %12, align 4
  br label %34

34:                                               ; preds = %30, %19
  call void @llvm.lifetime.end.p0(i64 8, ptr %11) #7
  call void @llvm.lifetime.end.p0(i64 8, ptr %10) #7
  call void @llvm.lifetime.end.p0(i64 8, ptr %9) #7
  %35 = load i32, ptr %12, align 4
  switch i32 %35, label %37 [
    i32 0, label %36
    i32 1, label %36
  ]

36:                                               ; preds = %34, %34
  ret void

37:                                               ; preds = %34
  unreachable
}