; Function Attrs: nounwind uwtable
define internal void @SDL_VIDPIDExcludedHintChanged(ptr noundef captures(none) %0, ptr readnone captures(none) %1, ptr readnone captures(none) %2, ptr noundef %3) #1 {
  %5 = getelementptr inbounds nuw i8, ptr %0, i64 64
  %6 = load i8, ptr %5, align 8, !range !26, !noundef !27
  %7 = trunc nuw i8 %6 to i1
  br i1 %7, label %8, label %34

8:                                                ; preds = %4
  %9 = load ptr, ptr %0, align 8
  %.not = icmp eq ptr %9, null
  br i1 %.not, label %12, label %10

10:                                               ; preds = %8
  %11 = tail call ptr @SDL_GetHint_REAL(ptr noundef nonnull %9) #13
  br label %12

12:                                               ; preds = %10, %8
  %.0 = phi ptr [ %11, %10 ], [ null, %8 ]
  %13 = getelementptr inbounds nuw i8, ptr %0, i64 8
  store i32 0, ptr %13, align 8
  %14 = getelementptr inbounds nuw i8, ptr %0, i64 32
  store i32 0, ptr %14, align 8
  %15 = getelementptr inbounds nuw i8, ptr %0, i64 48
  %16 = load i32, ptr %15, align 8
  %17 = icmp sgt i32 %16, 0
  br i1 %17, label %18, label %SDL_LoadVIDPIDListFromHints.exit

18:                                               ; preds = %12
  %19 = zext nneg i32 %16 to i64
  %20 = shl nuw nsw i64 %19, 2
  %21 = tail call noalias ptr @SDL_malloc_REAL(i64 noundef %20) #13
  %.not.i = icmp eq ptr %21, null
  br i1 %.not.i, label %SDL_LoadVIDPIDListFromHints.exit, label %22

22:                                               ; preds = %18
  %23 = getelementptr inbounds nuw i8, ptr %0, i64 56
  %24 = load ptr, ptr %23, align 8
  %25 = load i32, ptr %15, align 8
  %26 = sext i32 %25 to i64
  %27 = shl nsw i64 %26, 2
  tail call void @llvm.memcpy.p0.p0.i64(ptr nonnull align 4 %21, ptr align 4 %24, i64 %27, i1 false)
  %28 = getelementptr inbounds nuw i8, ptr %0, i64 16
  store ptr %21, ptr %28, align 8
  store i32 %25, ptr %13, align 8
  %29 = getelementptr inbounds nuw i8, ptr %0, i64 12
  store i32 %25, ptr %29, align 4
  br label %SDL_LoadVIDPIDListFromHints.exit

SDL_LoadVIDPIDListFromHints.exit:                 ; preds = %12, %18, %22
  %30 = getelementptr inbounds nuw i8, ptr %0, i64 12
  %31 = getelementptr inbounds nuw i8, ptr %0, i64 16
  tail call fastcc void @SDL_LoadVIDPIDListFromHint(ptr noundef %.0, ptr noundef nonnull %13, ptr noundef nonnull %30, ptr noundef nonnull %31)
  %32 = getelementptr inbounds nuw i8, ptr %0, i64 36
  %33 = getelementptr inbounds nuw i8, ptr %0, i64 40
  tail call fastcc void @SDL_LoadVIDPIDListFromHint(ptr noundef %3, ptr noundef nonnull %14, ptr noundef nonnull %32, ptr noundef nonnull %33)
  br label %34

34:                                               ; preds = %4, %SDL_LoadVIDPIDListFromHints.exit
  ret void
}